target datalayout = "e-m:e-p270:32:32-p271:32:32-p272:64:64-i64:64-i128:128-f80:128-n8:16:32:64-S128"
target triple = "x86_64-pc-linux-gnu"

%"class.cvc5::internal::NodeTemplate.600" = type { ptr }
%"class.cvc5::internal::Options" = type { %"class.std::unique_ptr.324", %"class.std::unique_ptr.332", %"class.std::unique_ptr.340", %"class.std::unique_ptr.348", %"class.std::unique_ptr.356", %"class.std::unique_ptr.364", %"class.std::unique_ptr.372", %"class.std::unique_ptr.380", %"class.std::unique_ptr.388", %"class.std::unique_ptr.396", %"class.std::unique_ptr.404", %"class.std::unique_ptr.412", %"class.std::unique_ptr.420", %"class.std::unique_ptr.428", %"class.std::unique_ptr.436", %"class.std::unique_ptr.444", %"class.std::unique_ptr.452", %"class.std::unique_ptr.460", %"class.std::unique_ptr.468", %"class.std::unique_ptr.476", %"class.std::unique_ptr.484", %"class.std::unique_ptr.492", %"class.std::unique_ptr.500", %"class.std::unique_ptr.508", %"class.std::unique_ptr.516", ptr, ptr, ptr, ptr, ptr, ptr, ptr, ptr, ptr, ptr, ptr, ptr, ptr, ptr, ptr, ptr, ptr, ptr, ptr, ptr, ptr, ptr, ptr, ptr, ptr, %"class.std::unique_ptr.524" }
%"class.std::unique_ptr.324" = type { %"struct.std::__uniq_ptr_data.325" }
%"struct.std::__uniq_ptr_data.325" = type { %"class.std::__uniq_ptr_impl.326" }
%"class.std::__uniq_ptr_impl.326" = type { %"class.std::tuple.327" }
%"class.std::tuple.327" = type { %"struct.std::_Tuple_impl.328" }
%"struct.std::_Tuple_impl.328" = type { %"struct.std::_Head_base.331" }
%"struct.std::_Head_base.331" = type { ptr }
%"class.std::unique_ptr.332" = type { %"struct.std::__uniq_ptr_data.333" }
%"struct.std::__uniq_ptr_data.333" = type { %"class.std::__uniq_ptr_impl.334" }
%"class.std::__uniq_ptr_impl.334" = type { %"class.std::tuple.335" }
%"class.std::tuple.335" = type { %"struct.std::_Tuple_impl.336" }
%"struct.std::_Tuple_impl.336" = type { %"struct.std::_Head_base.339" }
%"struct.std::_Head_base.339" = type { ptr }
%"class.std::unique_ptr.340" = type { %"struct.std::__uniq_ptr_data.341" }
%"struct.std::__uniq_ptr_data.341" = type { %"class.std::__uniq_ptr_impl.342" }
%"class.std::__uniq_ptr_impl.342" = type { %"class.std::tuple.343" }
%"class.std::tuple.343" = type { %"struct.std::_Tuple_impl.344" }
%"struct.std::_Tuple_impl.344" = type { %"struct.std::_Head_base.347" }
%"struct.std::_Head_base.347" = type { ptr }
%"class.std::unique_ptr.348" = type { %"struct.std::__uniq_ptr_data.349" }
%"struct.std::__uniq_ptr_data.349" = type { %"class.std::__uniq_ptr_impl.350" }
%"class.std::__uniq_ptr_impl.350" = type { %"class.std::tuple.351" }
%"class.std::tuple.351" = type { %"struct.std::_Tuple_impl.352" }
%"struct.std::_Tuple_impl.352" = type { %"struct.std::_Head_base.355" }
%"struct.std::_Head_base.355" = type { ptr }
%"class.std::unique_ptr.356" = type { %"struct.std::__uniq_ptr_data.357" }
%"struct.std::__uniq_ptr_data.357" = type { %"class.std::__uniq_ptr_impl.358" }
%"class.std::__uniq_ptr_impl.358" = type { %"class.std::tuple.359" }
%"class.std::tuple.359" = type { %"struct.std::_Tuple_impl.360" }
%"struct.std::_Tuple_impl.360" = type { %"struct.std::_Head_base.363" }
%"struct.std::_Head_base.363" = type { ptr }
%"class.std::unique_ptr.364" = type { %"struct.std::__uniq_ptr_data.365" }
%"struct.std::__uniq_ptr_data.365" = type { %"class.std::__uniq_ptr_impl.366" }
%"class.std::__uniq_ptr_impl.366" = type { %"class.std::tuple.367" }
%"class.std::tuple.367" = type { %"struct.std::_Tuple_impl.368" }
%"struct.std::_Tuple_impl.368" = type { %"struct.std::_Head_base.371" }
%"struct.std::_Head_base.371" = type { ptr }
%"class.std::unique_ptr.372" = type { %"struct.std::__uniq_ptr_data.373" }
%"struct.std::__uniq_ptr_data.373" = type { %"class.std::__uniq_ptr_impl.374" }
%"class.std::__uniq_ptr_impl.374" = type { %"class.std::tuple.375" }
%"class.std::tuple.375" = type { %"struct.std::_Tuple_impl.376" }
%"struct.std::_Tuple_impl.376" = type { %"struct.std::_Head_base.379" }
%"struct.std::_Head_base.379" = type { ptr }
%"class.std::unique_ptr.380" = type { %"struct.std::__uniq_ptr_data.381" }
%"struct.std::__uniq_ptr_data.381" = type { %"class.std::__uniq_ptr_impl.382" }
%"class.std::__uniq_ptr_impl.382" = type { %"class.std::tuple.383" }
%"class.std::tuple.383" = type { %"struct.std::_Tuple_impl.384" }
%"struct.std::_Tuple_impl.384" = type { %"struct.std::_Head_base.387" }
%"struct.std::_Head_base.387" = type { ptr }
%"class.std::unique_ptr.388" = type { %"struct.std::__uniq_ptr_data.389" }
%"struct.std::__uniq_ptr_data.389" = type { %"class.std::__uniq_ptr_impl.390" }
%"class.std::__uniq_ptr_impl.390" = type { %"class.std::tuple.391" }
%"class.std::tuple.391" = type { %"struct.std::_Tuple_impl.392" }
%"struct.std::_Tuple_impl.392" = type { %"struct.std::_Head_base.395" }
%"struct.std::_Head_base.395" = type { ptr }
%"class.std::unique_ptr.396" = type { %"struct.std::__uniq_ptr_data.397" }
%"struct.std::__uniq_ptr_data.397" = type { %"class.std::__uniq_ptr_impl.398" }
%"class.std::__uniq_ptr_impl.398" = type { %"class.std::tuple.399" }
%"class.std::tuple.399" = type { %"struct.std::_Tuple_impl.400" }
%"struct.std::_Tuple_impl.400" = type { %"struct.std::_Head_base.403" }
%"struct.std::_Head_base.403" = type { ptr }
%"class.std::unique_ptr.404" = type { %"struct.std::__uniq_ptr_data.405" }
%"struct.std::__uniq_ptr_data.405" = type { %"class.std::__uniq_ptr_impl.406" }
%"class.std::__uniq_ptr_impl.406" = type { %"class.std::tuple.407" }
%"class.std::tuple.407" = type { %"struct.std::_Tuple_impl.408" }
%"struct.std::_Tuple_impl.408" = type { %"struct.std::_Head_base.411" }
%"struct.std::_Head_base.411" = type { ptr }
%"class.std::unique_ptr.412" = type { %"struct.std::__uniq_ptr_data.413" }
%"struct.std::__uniq_ptr_data.413" = type { %"class.std::__uniq_ptr_impl.414" }
%"class.std::__uniq_ptr_impl.414" = type { %"class.std::tuple.415" }
%"class.std::tuple.415" = type { %"struct.std::_Tuple_impl.416" }
%"struct.std::_Tuple_impl.416" = type { %"struct.std::_Head_base.419" }
%"struct.std::_Head_base.419" = type { ptr }
%"class.std::unique_ptr.420" = type { %"struct.std::__uniq_ptr_data.421" }
%"struct.std::__uniq_ptr_data.421" = type { %"class.std::__uniq_ptr_impl.422" }
%"class.std::__uniq_ptr_impl.422" = type { %"class.std::tuple.423" }
%"class.std::tuple.423" = type { %"struct.std::_Tuple_impl.424" }
%"struct.std::_Tuple_impl.424" = type { %"struct.std::_Head_base.427" }
%"struct.std::_Head_base.427" = type { ptr }
%"class.std::unique_ptr.428" = type { %"struct.std::__uniq_ptr_data.429" }
%"struct.std::__uniq_ptr_data.429" = type { %"class.std::__uniq_ptr_impl.430" }
%"class.std::__uniq_ptr_impl.430" = type { %"class.std::tuple.431" }
%"class.std::tuple.431" = type { %"struct.std::_Tuple_impl.432" }
%"struct.std::_Tuple_impl.432" = type { %"struct.std::_Head_base.435" }
%"struct.std::_Head_base.435" = type { ptr }
%"class.std::unique_ptr.436" = type { %"struct.std::__uniq_ptr_data.437" }
%"struct.std::__uniq_ptr_data.437" = type { %"class.std::__uniq_ptr_impl.438" }
%"class.std::__uniq_ptr_impl.438" = type { %"class.std::tuple.439" }
%"class.std::tuple.439" = type { %"struct.std::_Tuple_impl.440" }
%"struct.std::_Tuple_impl.440" = type { %"struct.std::_Head_base.443" }
%"struct.std::_Head_base.443" = type { ptr }
%"class.std::unique_ptr.444" = type { %"struct.std::__uniq_ptr_data.445" }
%"struct.std::__uniq_ptr_data.445" = type { %"class.std::__uniq_ptr_impl.446" }
%"class.std::__uniq_ptr_impl.446" = type { %"class.std::tuple.447" }
%"class.std::tuple.447" = type { %"struct.std::_Tuple_impl.448" }
%"struct.std::_Tuple_impl.448" = type { %"struct.std::_Head_base.451" }
%"struct.std::_Head_base.451" = type { ptr }
%"class.std::unique_ptr.452" = type { %"struct.std::__uniq_ptr_data.453" }
%"struct.std::__uniq_ptr_data.453" = type { %"class.std::__uniq_ptr_impl.454" }
%"class.std::__uniq_ptr_impl.454" = type { %"class.std::tuple.455" }
%"class.std::tuple.455" = type { %"struct.std::_Tuple_impl.456" }
%"struct.std::_Tuple_impl.456" = type { %"struct.std::_Head_base.459" }
%"struct.std::_Head_base.459" = type { ptr }
%"class.std::unique_ptr.460" = type { %"struct.std::__uniq_ptr_data.461" }
%"struct.std::__uniq_ptr_data.461" = type { %"class.std::__uniq_ptr_impl.462" }
%"class.std::__uniq_ptr_impl.462" = type { %"class.std::tuple.463" }
%"class.std::tuple.463" = type { %"struct.std::_Tuple_impl.464" }
%"struct.std::_Tuple_impl.464" = type { %"struct.std::_Head_base.467" }
%"struct.std::_Head_base.467" = type { ptr }
%"class.std::unique_ptr.468" = type { %"struct.std::__uniq_ptr_data.469" }
%"struct.std::__uniq_ptr_data.469" = type { %"class.std::__uniq_ptr_impl.470" }
%"class.std::__uniq_ptr_impl.470" = type { %"class.std::tuple.471" }
%"class.std::tuple.471" = type { %"struct.std::_Tuple_impl.472" }
%"struct.std::_Tuple_impl.472" = type { %"struct.std::_Head_base.475" }
%"struct.std::_Head_base.475" = type { ptr }
%"class.std::unique_ptr.476" = type { %"struct.std::__uniq_ptr_data.477" }
%"struct.std::__uniq_ptr_data.477" = type { %"class.std::__uniq_ptr_impl.478" }
%"class.std::__uniq_ptr_impl.478" = type { %"class.std::tuple.479" }
%"class.std::tuple.479" = type { %"struct.std::_Tuple_impl.480" }
%"struct.std::_Tuple_impl.480" = type { %"struct.std::_Head_base.483" }
%"struct.std::_Head_base.483" = type { ptr }
%"class.std::unique_ptr.484" = type { %"struct.std::__uniq_ptr_data.485" }
%"struct.std::__uniq_ptr_data.485" = type { %"class.std::__uniq_ptr_impl.486" }
%"class.std::__uniq_ptr_impl.486" = type { %"class.std::tuple.487" }
%"class.std::tuple.487" = type { %"struct.std::_Tuple_impl.488" }
%"struct.std::_Tuple_impl.488" = type { %"struct.std::_Head_base.491" }
%"struct.std::_Head_base.491" = type { ptr }
%"class.std::unique_ptr.492" = type { %"struct.std::__uniq_ptr_data.493" }
%"struct.std::__uniq_ptr_data.493" = type { %"class.std::__uniq_ptr_impl.494" }
%"class.std::__uniq_ptr_impl.494" = type { %"class.std::tuple.495" }
%"class.std::tuple.495" = type { %"struct.std::_Tuple_impl.496" }
%"struct.std::_Tuple_impl.496" = type { %"struct.std::_Head_base.499" }
%"struct.std::_Head_base.499" = type { ptr }
%"class.std::unique_ptr.500" = type { %"struct.std::__uniq_ptr_data.501" }
%"struct.std::__uniq_ptr_data.501" = type { %"class.std::__uniq_ptr_impl.502" }
%"class.std::__uniq_ptr_impl.502" = type { %"class.std::tuple.503" }
%"class.std::tuple.503" = type { %"struct.std::_Tuple_impl.504" }
%"struct.std::_Tuple_impl.504" = type { %"struct.std::_Head_base.507" }
%"struct.std::_Head_base.507" = type { ptr }
%"class.std::unique_ptr.508" = type { %"struct.std::__uniq_ptr_data.509" }
%"struct.std::__uniq_ptr_data.509" = type { %"class.std::__uniq_ptr_impl.510" }
%"class.std::__uniq_ptr_impl.510" = type { %"class.std::tuple.511" }
%"class.std::tuple.511" = type { %"struct.std::_Tuple_impl.512" }
%"struct.std::_Tuple_impl.512" = type { %"struct.std::_Head_base.515" }
%"struct.std::_Head_base.515" = type { ptr }
%"class.std::unique_ptr.516" = type { %"struct.std::__uniq_ptr_data.517" }
%"struct.std::__uniq_ptr_data.517" = type { %"class.std::__uniq_ptr_impl.518" }
%"class.std::__uniq_ptr_impl.518" = type { %"class.std::tuple.519" }
%"class.std::tuple.519" = type { %"struct.std::_Tuple_impl.520" }
%"struct.std::_Tuple_impl.520" = type { %"struct.std::_Head_base.523" }
%"struct.std::_Head_base.523" = type { ptr }
%"class.std::unique_ptr.524" = type { %"struct.std::__uniq_ptr_data.525" }
%"struct.std::__uniq_ptr_data.525" = type { %"class.std::__uniq_ptr_impl.526" }
%"class.std::__uniq_ptr_impl.526" = type { %"class.std::tuple.527" }
%"class.std::tuple.527" = type { %"struct.std::_Tuple_impl.528" }
%"struct.std::_Tuple_impl.528" = type { %"struct.std::_Head_base.531" }
%"struct.std::_Head_base.531" = type { ptr }
%"class.cvc5::internal::expr::NodeValue" = type { i64, i64, ptr, [0 x ptr] }
%"struct.cvc5::internal::options::HolderTHEORY" = type <{ i8, i8, i8, i8, i32, i8, [3 x i8], i32, i8, [3 x i8], i32, i8, [3 x i8], i32, i8, i8, i8, i8, i32, i8, i8, i8, i8, i32, i8, [3 x i8], i32, i8, [3 x i8] }>

; Function Attrs: inlinehint mustprogress nounwind uwtable
define linkonce_odr hidden noundef i32 @_ZN4cvc58internal4expr9NodeValue11dKindToKindEj(i32 noundef %0) #11 comdat align 2 {
  %2 = alloca i32, align 4
  store i32 %0, ptr %2, align 4, !tbaa !576
  %3 = load i32, ptr %2, align 4, !tbaa !576
  %4 = icmp eq i32 %3, 1023
  br i1 %4, label %5, label %6

5:                                                ; preds = %1
  br label %8

6:                                                ; preds = %1
  %7 = load i32, ptr %2, align 4, !tbaa !576
  br label %8

8:                                                ; preds = %6, %5
  %9 = phi i32 [ -1, %5 ], [ %7, %6 ]
  ret i32 %9
}

; Function Attrs: mustprogress uwtable
define linkonce_odr hidden noundef i32 @_ZNK4cvc58internal4expr9NodeValue7getKindEv(ptr noundef nonnull align 8 dereferenceable(24) %0) #4 comdat align 2 {
  %2 = alloca ptr, align 8
  store ptr %0, ptr %2, align 8, !tbaa !941
  %3 = load ptr, ptr %2, align 8
  %4 = getelementptr inbounds nuw %"class.cvc5::internal::expr::NodeValue", ptr %3, i32 0, i32 1
  %5 = load i64, ptr %4, align 8
  %6 = and i64 %5, 1023
  %7 = trunc i64 %6 to i32
  %8 = call noundef i32 @_ZN4cvc58internal4expr9NodeValue11dKindToKindEj(i32 noundef %7)
  ret i32 %8
}

; Function Attrs: mustprogress uwtable
define linkonce_odr hidden noundef i32 @_ZNK4cvc58internal4expr9NodeValue11getMetaKindEv(ptr noundef nonnull align 8 dereferenceable(24) %0) #4 comdat align 2 {
  %2 = alloca ptr, align 8
  store ptr %0, ptr %2, align 8, !tbaa !941
  %3 = load ptr, ptr %2, align 8
  %4 = call noundef i32 @_ZNK4cvc58internal4expr9NodeValue7getKindEv(ptr noundef nonnull align 8 dereferenceable(24) %3)
  %5 = call noundef i32 @_ZN4cvc58internal4kind10metaKindOfENS1_6Kind_tE(i32 noundef %4)
  ret i32 %5
}

; Function Attrs: mustprogress uwtable
define linkonce_odr hidden noundef i32 @_ZNK4cvc58internal4expr9NodeValue14getNumChildrenEv(ptr noundef nonnull align 8 dereferenceable(24) %0) #4 comdat align 2 {
  %2 = alloca ptr, align 8
  store ptr %0, ptr %2, align 8, !tbaa !941
  %3 = load ptr, ptr %2, align 8
  %4 = call noundef i32 @_ZNK4cvc58internal4expr9NodeValue11getMetaKindEv(ptr noundef nonnull align 8 dereferenceable(24) %3)
  %5 = icmp eq i32 %4, 2
  br i1 %5, label %6, label %13

6:                                                ; preds = %1
  %7 = getelementptr inbounds nuw %"class.cvc5::internal::expr::NodeValue", ptr %3, i32 0, i32 1
  %8 = load i64, ptr %7, align 8
  %9 = lshr i64 %8, 32
  %10 = and i64 %9, 67108863
  %11 = trunc i64 %10 to i32
  %12 = sub nsw i32 %11, 1
  br label %19

13:                                               ; preds = %1
  %14 = getelementptr inbounds nuw %"class.cvc5::internal::expr::NodeValue", ptr %3, i32 0, i32 1
  %15 = load i64, ptr %14, align 8
  %16 = lshr i64 %15, 32
  %17 = and i64 %16, 67108863
  %18 = trunc i64 %17 to i32
  br label %19

19:                                               ; preds = %13, %6
  %20 = phi i32 [ %12, %6 ], [ %18, %13 ]
  ret i32 %20
}

; Function Attrs: inlinehint mustprogress nounwind uwtable
define linkonce_odr hidden void @_ZNK4cvc58internal12NodeTemplateILb0EE21assertTNodeNotExpiredEv(ptr noundef nonnull align 8 dereferenceable(8) %0) #11 comdat align 2 {
  %2 = alloca ptr, align 8
  store ptr %0, ptr %2, align 8, !tbaa !721
  ret void
}

; Function Attrs: mustprogress nounwind uwtable
define linkonce_odr hidden void @_ZN4cvc58internal12NodeTemplateILb0EED2Ev(ptr noundef nonnull align 8 dereferenceable(8) %0) unnamed_addr #5 comdat align 2 {
  %2 = alloca ptr, align 8
  store ptr %0, ptr %2, align 8, !tbaa !721
  ret void
}

; Function Attrs: mustprogress nounwind uwtable
define linkonce_odr hidden void @_ZN4cvc58internal12NodeTemplateILb0EEC2ERKS2_(ptr noundef nonnull align 8 dereferenceable(8) %0, ptr noundef nonnull align 8 dereferenceable(8) %1) unnamed_addr #5 comdat align 2 {
  %3 = alloca ptr, align 8
  %4 = alloca ptr, align 8
  store ptr %0, ptr %3, align 8, !tbaa !721
  store ptr %1, ptr %4, align 8, !tbaa !721
  %5 = load ptr, ptr %3, align 8
  %6 = load ptr, ptr %4, align 8, !tbaa !721
  %7 = getelementptr inbounds nuw %"class.cvc5::internal::NodeTemplate.600", ptr %6, i32 0, i32 0
  %8 = load ptr, ptr %7, align 8, !tbaa !729
  %9 = getelementptr inbounds nuw %"class.cvc5::internal::NodeTemplate.600", ptr %5, i32 0, i32 0
  store ptr %8, ptr %9, align 8, !tbaa !729
  ret void
}

; Function Attrs: inlinehint mustprogress uwtable
define linkonce_odr hidden noundef i64 @_ZNK4cvc58internal12NodeTemplateILb0EE14getNumChildrenEv(ptr noundef nonnull align 8 dereferenceable(8) %0) #10 comdat align 2 {
  %2 = alloca ptr, align 8
  store ptr %0, ptr %2, align 8, !tbaa !721
  %3 = load ptr, ptr %2, align 8
  call void @_ZNK4cvc58internal12NodeTemplateILb0EE21assertTNodeNotExpiredEv(ptr noundef nonnull align 8 dereferenceable(8) %3)
  %4 = getelementptr inbounds nuw %"class.cvc5::internal::NodeTemplate.600", ptr %3, i32 0, i32 0
  %5 = load ptr, ptr %4, align 8, !tbaa !729
  %6 = call noundef i32 @_ZNK4cvc58internal4expr9NodeValue14getNumChildrenEv(ptr noundef nonnull align 8 dereferenceable(24) %5)
  %7 = zext i32 %6 to i64
  ret i64 %7
}

; Function Attrs: mustprogress uwtable
define hidden noundef zeroext i1 @_ZNK4cvc58internal6theory5arith6linear18TheoryArithPrivate6isLeafENS0_12NodeTemplateILb0EEE(ptr noundef nonnull align 8 dereferenceable(9440) %0, ptr noundef %1) #4 align 2 personality ptr @__gxx_personality_v0 {
  %3 = alloca i1, align 1
  %4 = alloca ptr, align 8
  %5 = alloca ptr, align 8
  %6 = alloca %"class.cvc5::internal::NodeTemplate.600", align 8
  %7 = alloca i1, align 1
  %8 = alloca ptr, align 8
  %9 = alloca i32, align 4
  store ptr %0, ptr %4, align 8, !tbaa !3
  store ptr %1, ptr %5, align 8, !tbaa !721
  %10 = load ptr, ptr %4, align 8
  %11 = call noundef i64 @_ZNK4cvc58internal12NodeTemplateILb0EE14getNumChildrenEv(ptr noundef nonnull align 8 dereferenceable(8) %1)
  %12 = icmp eq i64 %11, 0
  store i1 false, ptr %7, align 1
  br i1 %12, label %23, label %13

13:                                               ; preds = %2
  call void @_ZN4cvc58internal12NodeTemplateILb0EEC2ERKS2_(ptr noundef nonnull align 8 dereferenceable(8) %6, ptr noundef nonnull align 8 dereferenceable(8) %1)
  store i1 true, ptr %7, align 1
  %14 = invoke noundef nonnull align 8 dereferenceable(408) ptr @_ZNK4cvc58internal6EnvObj7optionsEv(ptr noundef nonnull align 8 dereferenceable(16) %10)
          to label %15 unwind label %29

15:                                               ; preds = %13
  %16 = getelementptr inbounds nuw %"class.cvc5::internal::Options", ptr %14, i32 0, i32 48
  %17 = load ptr, ptr %16, align 8, !tbaa !971
  %18 = getelementptr inbounds nuw %"struct.cvc5::internal::options::HolderTHEORY", ptr %17, i32 0, i32 26
  %19 = load i32, ptr %18, align 4, !tbaa !972
  %20 = invoke noundef i32 @_ZN4cvc58internal6theory6Theory8theoryOfENS0_12NodeTemplateILb0EEENS0_7options12TheoryOfModeENS1_8TheoryIdE(ptr noundef %6, i32 noundef %19, i32 noundef 2)
          to label %21 unwind label %29

21:                                               ; preds = %15
  %22 = icmp ne i32 %20, 3
  br label %23

23:                                               ; preds = %21, %2
  %24 = phi i1 [ true, %2 ], [ %22, %21 ]
  store i1 %24, ptr %3, align 1
  %25 = load i1, ptr %7, align 1
  br i1 %25, label %26, label %27

26:                                               ; preds = %23
  call void @_ZN4cvc58internal12NodeTemplateILb0EED2Ev(ptr noundef nonnull align 8 dereferenceable(8) %6) #3
  br label %27

27:                                               ; preds = %26, %23
  %28 = load i1, ptr %3, align 1
  ret i1 %28

29:                                               ; preds = %15, %13
  %30 = landingpad { ptr, i32 }
          cleanup
  %31 = extractvalue { ptr, i32 } %30, 0
  store ptr %31, ptr %8, align 8
  %32 = extractvalue { ptr, i32 } %30, 1
  store i32 %32, ptr %9, align 4
  %33 = load i1, ptr %7, align 1
  br i1 %33, label %34, label %35

34:                                               ; preds = %29
  call void @_ZN4cvc58internal12NodeTemplateILb0EED2Ev(ptr noundef nonnull align 8 dereferenceable(8) %6) #3
  br label %35

35:                                               ; preds = %34, %29
  br label %36

36:                                               ; preds = %35
  %37 = load ptr, ptr %8, align 8
  %38 = load i32, ptr %9, align 4
  %39 = insertvalue { ptr, i32 } poison, ptr %37, 0
  %40 = insertvalue { ptr, i32 } %39, i32 %38, 1
  resume { ptr, i32 } %40
}