; Function Attrs: mustprogress uwtable
define hidden noundef zeroext i1 @_ZNK4cvc58internal6theory5arith6linear18TheoryArithPrivate6isLeafENS0_12NodeTemplateILb0EEE(ptr noundef nonnull align 8 dereferenceable(9440) %0, ptr noundef readonly captures(none) %1) local_unnamed_addr #3 align 2 personality ptr @__gxx_personality_v0 {
  %3 = alloca %"class.cvc5::internal::NodeTemplate.600", align 8
  %4 = load ptr, ptr %1, align 8, !tbaa !738
  %5 = getelementptr inbounds nuw i8, ptr %4, i64 8
  %6 = load i64, ptr %5, align 8
  %7 = trunc i64 %6 to i32
  %8 = and i32 %7, 1023
  %9 = icmp eq i32 %8, 1023
  %10 = select i1 %9, i32 -1, i32 %8
  %11 = tail call noundef i32 @_ZN4cvc58internal4kind10metaKindOfENS1_6Kind_tE(i32 noundef %10)
  %12 = icmp eq i32 %11, 2
  %13 = load i64, ptr %5, align 8
  %14 = lshr i64 %13, 32
  %15 = and i64 %14, 67108863
  %16 = sext i1 %12 to i64
  %17 = add nsw i64 %15, %16
  %18 = and i64 %17, 4294967295
  %.not = icmp eq i64 %18, 0
  br i1 %.not, label %.thread, label %19

19:                                               ; preds = %2
  %20 = load ptr, ptr %1, align 8, !tbaa !738
  store ptr %20, ptr %3, align 8, !tbaa !738
  %21 = tail call noundef nonnull align 8 dereferenceable(408) ptr @_ZNK4cvc58internal6EnvObj7optionsEv(ptr noundef nonnull align 8 dereferenceable(16) %0)
  %22 = getelementptr inbounds nuw i8, ptr %21, i64 384
  %23 = load ptr, ptr %22, align 8, !tbaa !1292
  %24 = getelementptr inbounds nuw i8, ptr %23, i64 52
  %25 = load i32, ptr %24, align 4, !tbaa !1293
  %26 = call noundef i32 @_ZN4cvc58internal6theory6Theory8theoryOfENS0_12NodeTemplateILb0EEENS0_7options12TheoryOfModeENS1_8TheoryIdE(ptr noundef nonnull %3, i32 noundef %25, i32 noundef 2)
  %27 = icmp ne i32 %26, 3
  br label %.thread

.thread:                                          ; preds = %2, %19
  %28 = phi i1 [ %27, %19 ], [ true, %2 ]
  ret i1 %28
}